Certificate:
    Data:
        Version: 3 (0x2)
        Serial Number: 1 (0x1)
        Signature Algorithm: sha256WithRSAEncryption
        Issuer: C=TN, ST=Tunis, O=None, OU=None, CN=Karim/emailAddress=karim.baccar9@hotmail.com
        Validity
            Not Before: Nov 12 10:01:12 2019 GMT
            Not After : Nov  5 10:01:12 2044 GMT
        Subject: C=TN, ST=Tunis, O=None, OU=None, CN=Karim/emailAddress=karim.baccar9@hotmail.com
        Subject Public Key Info:
            Public Key Algorithm: rsaEncryption
                RSA Public-Key: (2048 bit)
                Modulus:
                    00:cb:6f:1e:3f:cb:c1:8b:35:95:15:0a:80:05:b8:
                    10:7e:42:e4:d2:a5:be:eb:73:54:d1:ae:63:7d:b1:
                    ed:b7:f0:8b:e6:97:a2:dc:80:04:09:d8:f0:5c:26:
                    ae:d3:de:2d:b4:fb:b3:f3:6b:ab:91:c3:6d:1e:db:
                    71:cf:c5:bc:14:37:f8:5c:84:71:ca:86:cc:96:26:
                    4e:17:18:94:78:70:ff:f4:a8:aa:72:a8:5b:05:7c:
                    1c:07:cf:a9:03:cb:32:b4:cc:5c:88:81:52:98:40:
                    b2:7f:04:8e:a1:80:07:55:f5:f8:2b:7a:1a:6f:5a:
                    fa:f4:c7:37:b4:e2:d8:3e:a9:84:15:ff:d8:10:fa:
                    dc:d2:6b:1a:92:03:cc:b4:15:3d:4b:92:ec:17:35:
                    29:f5:17:b3:41:d2:30:51:72:81:ff:46:0c:14:61:
                    89:9b:3c:76:33:4e:f5:67:76:b4:24:7f:d1:af:44:
                    1b:50:d4:f4:d0:00:69:1a:53:96:e2:cb:e9:6c:01:
                    b5:d1:ac:28:cd:30:68:18:a1:73:e5:9a:6f:6c:8b:
                    10:7d:49:5a:d5:a5:cd:60:33:8c:e4:56:fb:4a:5c:
                    2a:18:a8:35:ef:fe:67:40:56:40:21:86:46:88:31:
                    66:70:36:b3:09:68:a1:d4:17:be:b2:b0:1b:87:4d:
                    ff:83
                Exponent: 65537 (0x10001)
        X509v3 extensions:
            X509v3 Subject Key Identifier: 
                21:86:FB:57:C8:65:09:D0:29:64:9C:5E:2F:69:77:F2:15:AA:00:FB
            X509v3 Authority Key Identifier: 
                keyid:21:86:FB:57:C8:65:09:D0:29:64:9C:5E:2F:69:77:F2:15:AA:00:FB

            X509v3 Basic Constraints: critical
                CA:TRUE
    Signature Algorithm: sha256WithRSAEncryption
         b5:17:89:c4:2a:31:ac:1b:8f:21:06:1d:c8:1c:68:6c:80:7b:
         c3:b3:81:b5:ae:6a:1a:12:b5:01:40:83:3c:16:5d:7c:d1:b1:
         79:d4:68:f8:4b:52:bf:5d:b1:b7:e2:c6:a8:d9:e8:81:6f:6c:
         0f:0d:77:7c:e5:58:89:e6:44:a0:d1:fc:e2:a9:00:7b:5d:7e:
         a0:21:9f:c7:9d:5f:8e:96:f3:8a:96:06:11:80:6b:de:62:37:
         41:73:44:64:d1:8b:3f:e1:33:29:60:f5:50:e0:e5:ff:6c:c0:
         ed:e8:6d:03:da:d5:ab:74:26:26:94:56:fa:fb:6d:10:25:f0:
         de:f5:5e:bb:32:a8:e5:38:1c:3d:8a:b6:5e:b6:d3:9d:8e:1d:
         0c:09:84:62:c2:12:ba:4d:ef:a0:bd:43:b4:8d:5c:81:1f:c5:
         97:a0:3e:82:a2:0c:89:c8:ac:90:18:32:ac:9f:dc:55:ca:24:
         ef:16:13:2e:4a:e2:93:2c:ff:e7:44:ca:56:db:ce:22:f6:85:
         3d:77:22:69:04:7a:46:9a:d1:ff:43:f8:b0:0b:43:0b:26:54:
         57:8b:9d:2f:4a:17:38:cb:eb:e6:ff:23:d8:73:a3:e5:2d:d0:
         e8:b7:a4:55:4f:90:4e:90:d5:0a:95:04:26:75:a1:f0:6a:97:
         66:39:b9:45
-----BEGIN CERTIFICATE-----
MIIDuDCCAqCgAwIBAgIBATANBgkqhkiG9w0BAQsFADB1MQswCQYDVQQGEwJUTjEO
MAwGA1UECAwFVHVuaXMxDTALBgNVBAoMBE5vbmUxDTALBgNVBAsMBE5vbmUxDjAM
BgNVBAMMBUthcmltMSgwJgYJKoZIhvcNAQkBFhlrYXJpbS5iYWNjYXI5QGhvdG1h
aWwuY29tMB4XDTE5MTExMjEwMDExMloXDTQ0MTEwNTEwMDExMlowdTELMAkGA1UE
BhMCVE4xDjAMBgNVBAgMBVR1bmlzMQ0wCwYDVQQKDAROb25lMQ0wCwYDVQQLDARO
b25lMQ4wDAYDVQQDDAVLYXJpbTEoMCYGCSqGSIb3DQEJARYZa2FyaW0uYmFjY2Fy
OUBob3RtYWlsLmNvbTCCASIwDQYJKoZIhvcNAQEBBQADggEPADCCAQoCggEBAMtv
Hj/LwYs1lRUKgAW4EH5C5NKlvutzVNGuY32x7bfwi+aXotyABAnY8FwmrtPeLbT7
s/Nrq5HDbR7bcc/FvBQ3+FyEccqGzJYmThcYlHhw//SoqnKoWwV8HAfPqQPLMrTM
XIiBUphAsn8EjqGAB1X1+Ct6Gm9a+vTHN7Ti2D6phBX/2BD63NJrGpIDzLQVPUuS
7Bc1KfUXs0HSMFFygf9GDBRhiZs8djNO9Wd2tCR/0a9EG1DU9NAAaRpTluLL6WwB
tdGsKM0waBihc+Wab2yLEH1JWtWlzWAzjORW+0pcKhioNe/+Z0BWQCGGRogxZnA2
swloodQXvrKwG4dN/4MCAwEAAaNTMFEwHQYDVR0OBBYEFCGG+1fIZQnQKWScXi9p
d/IVqgD7MB8GA1UdIwQYMBaAFCGG+1fIZQnQKWScXi9pd/IVqgD7MA8GA1UdEwEB
/wQFMAMBAf8wDQYJKoZIhvcNAQELBQADggEBALUXicQqMawbjyEGHcgcaGyAe8Oz
gbWuahoStQFAgzwWXXzRsXnUaPhLUr9dsbfixqjZ6IFvbA8Nd3zlWInmRKDR/OKp
AHtdfqAhn8edX46W84qWBhGAa95iN0FzRGTRiz/hMylg9VDg5f9swO3obQPa1at0
JiaUVvr7bRAl8N71XrsyqOU4HD2Ktl62052OHQwJhGLCErpN76C9Q7SNXIEfxZeg
PoKiDInIrJAYMqyf3FXKJO8WEy5K4pMs/+dEylbbziL2hT13ImkEekaa0f9D+LAL
QwsmVFeLnS9KFzjL6+b/I9hzo+Ut0Oi3pFVPkE6Q1QqVBCZ1ofBql2Y5uUU=
-----END CERTIFICATE-----
